target datalayout = "e-m:e-p270:32:32-p271:32:32-p272:64:64-i64:64-i128:128-f80:128-n8:16:32:64-S128"
target triple = "x86_64-pc-linux-gnu"

%struct.unim_index = type { ptr, i8, i8 }

; Function Attrs: inlinehint nounwind uwtable
define internal i32 @PyUnicode_READ(i32 noundef %0, ptr noundef %1, i64 noundef %2) #2 {
  %4 = alloca i32, align 4
  %5 = alloca i32, align 4
  %6 = alloca ptr, align 8
  %7 = alloca i64, align 8
  store i32 %0, ptr %5, align 4, !tbaa !19
  store ptr %1, ptr %6, align 8, !tbaa !3
  store i64 %2, ptr %7, align 8, !tbaa !28
  %8 = load i32, ptr %5, align 4, !tbaa !19
  %9 = icmp eq i32 %8, 1
  br i1 %9, label %10, label %16

10:                                               ; preds = %3
  %11 = load ptr, ptr %6, align 8, !tbaa !3
  %12 = load i64, ptr %7, align 8, !tbaa !28
  %13 = getelementptr i8, ptr %11, i64 %12
  %14 = load i8, ptr %13, align 1, !tbaa !42
  %15 = zext i8 %14 to i32
  store i32 %15, ptr %4, align 4
  br label %30

16:                                               ; preds = %3
  %17 = load i32, ptr %5, align 4, !tbaa !19
  %18 = icmp eq i32 %17, 2
  br i1 %18, label %19, label %25

19:                                               ; preds = %16
  %20 = load ptr, ptr %6, align 8, !tbaa !3
  %21 = load i64, ptr %7, align 8, !tbaa !28
  %22 = getelementptr i16, ptr %20, i64 %21
  %23 = load i16, ptr %22, align 2, !tbaa !70
  %24 = zext i16 %23 to i32
  store i32 %24, ptr %4, align 4
  br label %30

25:                                               ; preds = %16
  %26 = load ptr, ptr %6, align 8, !tbaa !3
  %27 = load i64, ptr %7, align 8, !tbaa !28
  %28 = getelementptr i32, ptr %26, i64 %27
  %29 = load i32, ptr %28, align 4, !tbaa !19
  store i32 %29, ptr %4, align 4
  br label %30

30:                                               ; preds = %25, %19, %10
  %31 = load i32, ptr %4, align 4
  ret i32 %31
}

; Function Attrs: nounwind uwtable
define internal i64 @shift_jis_encode(ptr noundef %0, ptr noundef %1, i32 noundef %2, ptr noundef %3, ptr noundef %4, i64 noundef %5, ptr noundef %6, i64 noundef %7, i32 noundef %8) #0 {
  %10 = alloca i64, align 8
  %11 = alloca ptr, align 8
  %12 = alloca ptr, align 8
  %13 = alloca i32, align 4
  %14 = alloca ptr, align 8
  %15 = alloca ptr, align 8
  %16 = alloca i64, align 8
  %17 = alloca ptr, align 8
  %18 = alloca i64, align 8
  %19 = alloca i32, align 4
  %20 = alloca i32, align 4
  %21 = alloca i16, align 2
  %22 = alloca i8, align 1
  %23 = alloca i8, align 1
  %24 = alloca i32, align 4
  store ptr %0, ptr %11, align 8, !tbaa !3
  store ptr %1, ptr %12, align 8, !tbaa !21
  store i32 %2, ptr %13, align 4, !tbaa !19
  store ptr %3, ptr %14, align 8, !tbaa !3
  store ptr %4, ptr %15, align 8, !tbaa !66
  store i64 %5, ptr %16, align 8, !tbaa !28
  store ptr %6, ptr %17, align 8, !tbaa !68
  store i64 %7, ptr %18, align 8, !tbaa !28
  store i32 %8, ptr %19, align 4, !tbaa !19
  br label %25

25:                                               ; preds = %274, %272, %9
  %26 = load ptr, ptr %15, align 8, !tbaa !66
  %27 = load i64, ptr %26, align 8, !tbaa !28
  %28 = load i64, ptr %16, align 8, !tbaa !28
  %29 = icmp slt i64 %27, %28
  br i1 %29, label %30, label %275

30:                                               ; preds = %25
  call void @llvm.lifetime.start.p0(i64 4, ptr %20) #9
  %31 = load i32, ptr %13, align 4, !tbaa !19
  %32 = load ptr, ptr %14, align 8, !tbaa !3
  %33 = load ptr, ptr %15, align 8, !tbaa !66
  %34 = load i64, ptr %33, align 8, !tbaa !28
  %35 = call i32 @PyUnicode_READ(i32 noundef %31, ptr noundef %32, i64 noundef %34)
  store i32 %35, ptr %20, align 4, !tbaa !19
  call void @llvm.lifetime.start.p0(i64 2, ptr %21) #9
  call void @llvm.lifetime.start.p0(i64 1, ptr %22) #9
  call void @llvm.lifetime.start.p0(i64 1, ptr %23) #9
  %36 = load i32, ptr %20, align 4, !tbaa !19
  %37 = icmp ult i32 %36, 128
  br i1 %37, label %38, label %41

38:                                               ; preds = %30
  %39 = load i32, ptr %20, align 4, !tbaa !19
  %40 = trunc i32 %39 to i16
  store i16 %40, ptr %21, align 2, !tbaa !70
  br label %68

41:                                               ; preds = %30
  %42 = load i32, ptr %20, align 4, !tbaa !19
  %43 = icmp eq i32 %42, 165
  br i1 %43, label %44, label %45

44:                                               ; preds = %41
  store i16 92, ptr %21, align 2, !tbaa !70
  br label %67

45:                                               ; preds = %41
  %46 = load i32, ptr %20, align 4, !tbaa !19
  %47 = icmp eq i32 %46, 8254
  br i1 %47, label %48, label %49

48:                                               ; preds = %45
  store i16 126, ptr %21, align 2, !tbaa !70
  br label %66

49:                                               ; preds = %45
  %50 = load i32, ptr %20, align 4, !tbaa !19
  %51 = icmp uge i32 %50, 65377
  br i1 %51, label %52, label %59

52:                                               ; preds = %49
  %53 = load i32, ptr %20, align 4, !tbaa !19
  %54 = icmp ule i32 %53, 65439
  br i1 %54, label %55, label %59

55:                                               ; preds = %52
  %56 = load i32, ptr %20, align 4, !tbaa !19
  %57 = sub i32 %56, 65216
  %58 = trunc i32 %57 to i16
  store i16 %58, ptr %21, align 2, !tbaa !70
  br label %65

59:                                               ; preds = %52, %49
  %60 = load i32, ptr %20, align 4, !tbaa !19
  %61 = icmp ugt i32 %60, 65535
  br i1 %61, label %62, label %63

62:                                               ; preds = %59
  store i64 1, ptr %10, align 8
  store i32 1, ptr %24, align 4
  br label %272

63:                                               ; preds = %59
  store i16 -1, ptr %21, align 2, !tbaa !70
  br label %64

64:                                               ; preds = %63
  br label %65

65:                                               ; preds = %64, %55
  br label %66

66:                                               ; preds = %65, %48
  br label %67

67:                                               ; preds = %66, %44
  br label %68

68:                                               ; preds = %67, %38
  %69 = load i16, ptr %21, align 2, !tbaa !70
  %70 = zext i16 %69 to i32
  %71 = icmp slt i32 %70, 128
  br i1 %71, label %80, label %72

72:                                               ; preds = %68
  %73 = load i16, ptr %21, align 2, !tbaa !70
  %74 = zext i16 %73 to i32
  %75 = icmp sge i32 %74, 161
  br i1 %75, label %76, label %113

76:                                               ; preds = %72
  %77 = load i16, ptr %21, align 2, !tbaa !70
  %78 = zext i16 %77 to i32
  %79 = icmp sle i32 %78, 223
  br i1 %79, label %80, label %113

80:                                               ; preds = %76, %68
  br label %81

81:                                               ; preds = %80
  %82 = load i64, ptr %18, align 8, !tbaa !28
  %83 = icmp slt i64 %82, 1
  br i1 %83, label %84, label %85

84:                                               ; preds = %81
  store i64 -1, ptr %10, align 8
  store i32 1, ptr %24, align 4
  br label %272

85:                                               ; preds = %81
  br label %86

86:                                               ; preds = %85
  br label %87

87:                                               ; preds = %86
  br label %88

88:                                               ; preds = %87
  %89 = load i16, ptr %21, align 2, !tbaa !70
  %90 = trunc i16 %89 to i8
  %91 = load ptr, ptr %17, align 8, !tbaa !68
  %92 = load ptr, ptr %91, align 8, !tbaa !17
  %93 = getelementptr i8, ptr %92, i64 0
  store i8 %90, ptr %93, align 1, !tbaa !42
  br label %94

94:                                               ; preds = %88
  br label %95

95:                                               ; preds = %94
  br label %96

96:                                               ; preds = %95
  br label %97

97:                                               ; preds = %96
  %98 = load ptr, ptr %15, align 8, !tbaa !66
  %99 = load i64, ptr %98, align 8, !tbaa !28
  %100 = add i64 %99, 1
  store i64 %100, ptr %98, align 8, !tbaa !28
  br label %101

101:                                              ; preds = %97
  br label %102

102:                                              ; preds = %101
  br label %103

103:                                              ; preds = %102
  %104 = load ptr, ptr %17, align 8, !tbaa !68
  %105 = load ptr, ptr %104, align 8, !tbaa !17
  %106 = getelementptr i8, ptr %105, i64 1
  store ptr %106, ptr %104, align 8, !tbaa !17
  %107 = load i64, ptr %18, align 8, !tbaa !28
  %108 = sub i64 %107, 1
  store i64 %108, ptr %18, align 8, !tbaa !28
  br label %109

109:                                              ; preds = %103
  br label %110

110:                                              ; preds = %109
  br label %111

111:                                              ; preds = %110
  br label %112

112:                                              ; preds = %111
  store i32 2, ptr %24, align 4
  br label %272, !llvm.loop !71

113:                                              ; preds = %76, %72
  br label %114

114:                                              ; preds = %113
  %115 = load i64, ptr %18, align 8, !tbaa !28
  %116 = icmp slt i64 %115, 2
  br i1 %116, label %117, label %118

117:                                              ; preds = %114
  store i64 -1, ptr %10, align 8
  store i32 1, ptr %24, align 4
  br label %272

118:                                              ; preds = %114
  br label %119

119:                                              ; preds = %118
  br label %120

120:                                              ; preds = %119
  %121 = load i16, ptr %21, align 2, !tbaa !70
  %122 = zext i16 %121 to i32
  %123 = icmp eq i32 %122, 65535
  br i1 %123, label %124, label %190

124:                                              ; preds = %120
  %125 = load i32, ptr %20, align 4, !tbaa !19
  %126 = lshr i32 %125, 8
  %127 = zext i32 %126 to i64
  %128 = getelementptr [256 x %struct.unim_index], ptr @jisxcommon_encmap, i64 0, i64 %127
  %129 = getelementptr inbounds nuw %struct.unim_index, ptr %128, i32 0, i32 0
  %130 = load ptr, ptr %129, align 16, !tbaa !72
  %131 = icmp ne ptr %130, null
  br i1 %131, label %132, label %177

132:                                              ; preds = %124
  %133 = load i32, ptr %20, align 4, !tbaa !19
  %134 = and i32 %133, 255
  %135 = load i32, ptr %20, align 4, !tbaa !19
  %136 = lshr i32 %135, 8
  %137 = zext i32 %136 to i64
  %138 = getelementptr [256 x %struct.unim_index], ptr @jisxcommon_encmap, i64 0, i64 %137
  %139 = getelementptr inbounds nuw %struct.unim_index, ptr %138, i32 0, i32 1
  %140 = load i8, ptr %139, align 8, !tbaa !75
  %141 = zext i8 %140 to i32
  %142 = icmp uge i32 %134, %141
  br i1 %142, label %143, label %177

143:                                              ; preds = %132
  %144 = load i32, ptr %20, align 4, !tbaa !19
  %145 = and i32 %144, 255
  %146 = load i32, ptr %20, align 4, !tbaa !19
  %147 = lshr i32 %146, 8
  %148 = zext i32 %147 to i64
  %149 = getelementptr [256 x %struct.unim_index], ptr @jisxcommon_encmap, i64 0, i64 %148
  %150 = getelementptr inbounds nuw %struct.unim_index, ptr %149, i32 0, i32 2
  %151 = load i8, ptr %150, align 1, !tbaa !76
  %152 = zext i8 %151 to i32
  %153 = icmp ule i32 %145, %152
  br i1 %153, label %154, label %177

154:                                              ; preds = %143
  %155 = load i32, ptr %20, align 4, !tbaa !19
  %156 = lshr i32 %155, 8
  %157 = zext i32 %156 to i64
  %158 = getelementptr [256 x %struct.unim_index], ptr @jisxcommon_encmap, i64 0, i64 %157
  %159 = getelementptr inbounds nuw %struct.unim_index, ptr %158, i32 0, i32 0
  %160 = load ptr, ptr %159, align 16, !tbaa !72
  %161 = load i32, ptr %20, align 4, !tbaa !19
  %162 = and i32 %161, 255
  %163 = load i32, ptr %20, align 4, !tbaa !19
  %164 = lshr i32 %163, 8
  %165 = zext i32 %164 to i64
  %166 = getelementptr [256 x %struct.unim_index], ptr @jisxcommon_encmap, i64 0, i64 %165
  %167 = getelementptr inbounds nuw %struct.unim_index, ptr %166, i32 0, i32 1
  %168 = load i8, ptr %167, align 8, !tbaa !75
  %169 = zext i8 %168 to i32
  %170 = sub i32 %162, %169
  %171 = zext i32 %170 to i64
  %172 = getelementptr i16, ptr %160, i64 %171
  %173 = load i16, ptr %172, align 2, !tbaa !70
  store i16 %173, ptr %21, align 2, !tbaa !70
  %174 = zext i16 %173 to i32
  %175 = icmp ne i32 %174, 65535
  br i1 %175, label %176, label %177

176:                                              ; preds = %154
  br label %183

177:                                              ; preds = %154, %143, %132, %124
  %178 = load i32, ptr %20, align 4, !tbaa !19
  %179 = icmp eq i32 %178, 65340
  br i1 %179, label %180, label %181

180:                                              ; preds = %177
  store i16 8512, ptr %21, align 2, !tbaa !70
  br label %182

181:                                              ; preds = %177
  store i64 1, ptr %10, align 8
  store i32 1, ptr %24, align 4
  br label %272

182:                                              ; preds = %180
  br label %183

183:                                              ; preds = %182, %176
  %184 = load i16, ptr %21, align 2, !tbaa !70
  %185 = zext i16 %184 to i32
  %186 = and i32 %185, 32768
  %187 = icmp ne i32 %186, 0
  br i1 %187, label %188, label %189

188:                                              ; preds = %183
  store i64 1, ptr %10, align 8
  store i32 1, ptr %24, align 4
  br label %272

189:                                              ; preds = %183
  br label %190

190:                                              ; preds = %189, %120
  %191 = load i16, ptr %21, align 2, !tbaa !70
  %192 = zext i16 %191 to i32
  %193 = ashr i32 %192, 8
  %194 = trunc i32 %193 to i8
  store i8 %194, ptr %22, align 1, !tbaa !42
  %195 = load i16, ptr %21, align 2, !tbaa !70
  %196 = zext i16 %195 to i32
  %197 = and i32 %196, 255
  %198 = trunc i32 %197 to i8
  store i8 %198, ptr %23, align 1, !tbaa !42
  %199 = load i8, ptr %22, align 1, !tbaa !42
  %200 = zext i8 %199 to i32
  %201 = sub i32 %200, 33
  %202 = and i32 %201, 1
  %203 = icmp ne i32 %202, 0
  %204 = select i1 %203, i32 94, i32 0
  %205 = load i8, ptr %23, align 1, !tbaa !42
  %206 = zext i8 %205 to i32
  %207 = sub i32 %206, 33
  %208 = add i32 %204, %207
  %209 = trunc i32 %208 to i8
  store i8 %209, ptr %23, align 1, !tbaa !42
  %210 = load i8, ptr %22, align 1, !tbaa !42
  %211 = zext i8 %210 to i32
  %212 = sub i32 %211, 33
  %213 = ashr i32 %212, 1
  %214 = trunc i32 %213 to i8
  store i8 %214, ptr %22, align 1, !tbaa !42
  br label %215

215:                                              ; preds = %190
  %216 = load i8, ptr %22, align 1, !tbaa !42
  %217 = zext i8 %216 to i32
  %218 = icmp slt i32 %217, 31
  br i1 %218, label %219, label %223

219:                                              ; preds = %215
  %220 = load i8, ptr %22, align 1, !tbaa !42
  %221 = zext i8 %220 to i32
  %222 = add i32 %221, 129
  br label %227

223:                                              ; preds = %215
  %224 = load i8, ptr %22, align 1, !tbaa !42
  %225 = zext i8 %224 to i32
  %226 = add i32 %225, 193
  br label %227

227:                                              ; preds = %223, %219
  %228 = phi i32 [ %222, %219 ], [ %226, %223 ]
  %229 = trunc i32 %228 to i8
  %230 = load ptr, ptr %17, align 8, !tbaa !68
  %231 = load ptr, ptr %230, align 8, !tbaa !17
  %232 = getelementptr i8, ptr %231, i64 0
  store i8 %229, ptr %232, align 1, !tbaa !42
  br label %233

233:                                              ; preds = %227
  br label %234

234:                                              ; preds = %233
  br label %235

235:                                              ; preds = %234
  %236 = load i8, ptr %23, align 1, !tbaa !42
  %237 = zext i8 %236 to i32
  %238 = icmp slt i32 %237, 63
  br i1 %238, label %239, label %243

239:                                              ; preds = %235
  %240 = load i8, ptr %23, align 1, !tbaa !42
  %241 = zext i8 %240 to i32
  %242 = add i32 %241, 64
  br label %247

243:                                              ; preds = %235
  %244 = load i8, ptr %23, align 1, !tbaa !42
  %245 = zext i8 %244 to i32
  %246 = add i32 %245, 65
  br label %247

247:                                              ; preds = %243, %239
  %248 = phi i32 [ %242, %239 ], [ %246, %243 ]
  %249 = trunc i32 %248 to i8
  %250 = load ptr, ptr %17, align 8, !tbaa !68
  %251 = load ptr, ptr %250, align 8, !tbaa !17
  %252 = getelementptr i8, ptr %251, i64 1
  store i8 %249, ptr %252, align 1, !tbaa !42
  br label %253

253:                                              ; preds = %247
  br label %254

254:                                              ; preds = %253
  br label %255

255:                                              ; preds = %254
  br label %256

256:                                              ; preds = %255
  %257 = load ptr, ptr %15, align 8, !tbaa !66
  %258 = load i64, ptr %257, align 8, !tbaa !28
  %259 = add i64 %258, 1
  store i64 %259, ptr %257, align 8, !tbaa !28
  br label %260

260:                                              ; preds = %256
  br label %261

261:                                              ; preds = %260
  br label %262

262:                                              ; preds = %261
  %263 = load ptr, ptr %17, align 8, !tbaa !68
  %264 = load ptr, ptr %263, align 8, !tbaa !17
  %265 = getelementptr i8, ptr %264, i64 2
  store ptr %265, ptr %263, align 8, !tbaa !17
  %266 = load i64, ptr %18, align 8, !tbaa !28
  %267 = sub i64 %266, 2
  store i64 %267, ptr %18, align 8, !tbaa !28
  br label %268

268:                                              ; preds = %262
  br label %269

269:                                              ; preds = %268
  br label %270

270:                                              ; preds = %269
  br label %271

271:                                              ; preds = %270
  store i32 0, ptr %24, align 4
  br label %272

272:                                              ; preds = %271, %188, %181, %117, %112, %84, %62
  call void @llvm.lifetime.end.p0(i64 1, ptr %23) #9
  call void @llvm.lifetime.end.p0(i64 1, ptr %22) #9
  call void @llvm.lifetime.end.p0(i64 2, ptr %21) #9
  call void @llvm.lifetime.end.p0(i64 4, ptr %20) #9
  %273 = load i32, ptr %24, align 4
  switch i32 %273, label %278 [
    i32 0, label %274
    i32 1, label %276
    i32 2, label %25
  ]

274:                                              ; preds = %272
  br label %25, !llvm.loop !71

275:                                              ; preds = %25
  store i64 0, ptr %10, align 8
  br label %276

276:                                              ; preds = %275, %272
  %277 = load i64, ptr %10, align 8
  ret i64 %277

278:                                              ; preds = %272
  unreachable
}