; Function Attrs: nofree norecurse nosync nounwind memory(readwrite, inaccessiblemem: none) uwtable
define internal range(i64 -1, 2) i64 @shift_jis_encode(ptr readnone captures(none) %0, ptr readnone captures(none) %1, i32 noundef %2, ptr noundef readonly captures(none) %3, ptr noundef captures(none) %4, i64 noundef %5, ptr noundef captures(none) %6, i64 noundef %7, i32 %8) #6 {
  %10 = load i64, ptr %4, align 8, !tbaa !48
  %11 = icmp slt i64 %10, %5
  br i1 %11, label %.lr.ph, label %.thread83

.lr.ph:                                           ; preds = %9, %81
  %12 = phi i64 [ %83, %81 ], [ %10, %9 ]
  %.05689 = phi i64 [ %86, %81 ], [ %7, %9 ]
  switch i32 %2, label %21 [
    i32 1, label %13
    i32 2, label %17
  ]

13:                                               ; preds = %.lr.ph
  %14 = getelementptr i8, ptr %3, i64 %12
  %15 = load i8, ptr %14, align 1, !tbaa !34
  %16 = zext i8 %15 to i32
  br label %PyUnicode_READ.exit

17:                                               ; preds = %.lr.ph
  %18 = getelementptr i16, ptr %3, i64 %12
  %19 = load i16, ptr %18, align 2, !tbaa !49
  %20 = zext i16 %19 to i32
  br label %PyUnicode_READ.exit

21:                                               ; preds = %.lr.ph
  %22 = getelementptr i32, ptr %3, i64 %12
  %23 = load i32, ptr %22, align 4, !tbaa !50
  br label %PyUnicode_READ.exit

PyUnicode_READ.exit:                              ; preds = %13, %17, %21
  %.0.i = phi i32 [ %16, %13 ], [ %20, %17 ], [ %23, %21 ]
  %24 = icmp ult i32 %.0.i, 128
  br i1 %24, label %25, label %27

25:                                               ; preds = %PyUnicode_READ.exit
  %26 = trunc nuw i32 %.0.i to i8
  br label %.thread

27:                                               ; preds = %PyUnicode_READ.exit
  switch i32 %.0.i, label %29 [
    i32 165, label %.thread
    i32 8254, label %28
  ]

28:                                               ; preds = %27
  br label %.thread

29:                                               ; preds = %27
  %30 = add i32 %.0.i, -65377
  %or.cond = icmp ult i32 %30, 63
  br i1 %or.cond, label %33, label %31

31:                                               ; preds = %29
  %32 = icmp ugt i32 %.0.i, 65535
  br i1 %32, label %.thread83, label %.thread99

33:                                               ; preds = %29
  %34 = trunc i32 %.0.i to i8
  %35 = add i8 %34, 64
  br label %.thread

.thread:                                          ; preds = %33, %27, %28, %25
  %.05878 = phi i8 [ %35, %33 ], [ 92, %27 ], [ 126, %28 ], [ %26, %25 ]
  %36 = icmp slt i64 %.05689, 1
  br i1 %36, label %.thread83, label %37

37:                                               ; preds = %.thread
  %38 = load ptr, ptr %6, align 8, !tbaa !37
  store i8 %.05878, ptr %38, align 1, !tbaa !34
  br label %81, !llvm.loop !51

.thread99:                                        ; preds = %31
  %39 = icmp slt i64 %.05689, 2
  br i1 %39, label %.thread83, label %40

40:                                               ; preds = %.thread99
  %41 = lshr i32 %.0.i, 8
  %42 = zext nneg i32 %41 to i64
  %43 = getelementptr [256 x %struct.unim_index], ptr @jisxcommon_encmap, i64 0, i64 %42
  %44 = load ptr, ptr %43, align 16, !tbaa !52
  %.not = icmp eq ptr %44, null
  br i1 %.not, label %59, label %45

45:                                               ; preds = %40
  %46 = and i32 %.0.i, 255
  %47 = getelementptr inbounds nuw i8, ptr %43, i64 8
  %48 = load i8, ptr %47, align 8, !tbaa !55
  %49 = zext i8 %48 to i32
  %.not68 = icmp samesign ult i32 %46, %49
  br i1 %.not68, label %59, label %50

50:                                               ; preds = %45
  %51 = getelementptr inbounds nuw i8, ptr %43, i64 9
  %52 = load i8, ptr %51, align 1, !tbaa !56
  %53 = zext i8 %52 to i32
  %.not69 = icmp samesign ugt i32 %46, %53
  br i1 %.not69, label %59, label %54

54:                                               ; preds = %50
  %55 = sub nsw i32 %46, %49
  %56 = zext i32 %55 to i64
  %57 = getelementptr i16, ptr %44, i64 %56
  %58 = load i16, ptr %57, align 2, !tbaa !49
  %.not70 = icmp eq i16 %58, -1
  br i1 %.not70, label %59, label %61

59:                                               ; preds = %54, %50, %45, %40
  %60 = icmp eq i32 %.0.i, 65340
  br i1 %60, label %.thread79, label %.thread83

61:                                               ; preds = %54
  %.not71 = icmp sgt i16 %58, -1
  br i1 %.not71, label %.thread79, label %.thread83

.thread79:                                        ; preds = %59, %61
  %.159 = phi i16 [ %58, %61 ], [ 8512, %59 ]
  %62 = lshr i16 %.159, 8
  %63 = zext nneg i16 %62 to i32
  %64 = add nsw i32 %63, -33
  %65 = and i32 %64, 1
  %.not72 = icmp eq i32 %65, 0
  %66 = select i1 %.not72, i32 0, i32 94
  %narrow = add nuw i16 %.159, 223
  %67 = zext i16 %narrow to i32
  %68 = add nuw nsw i32 %66, %67
  %69 = lshr i32 %64, 1
  %70 = and i32 %64, 510
  %71 = icmp samesign ult i32 %70, 62
  %.v = select i1 %71, i32 129, i32 193
  %72 = add nuw i32 %.v, %69
  %73 = trunc i32 %72 to i8
  %74 = load ptr, ptr %6, align 8, !tbaa !37
  store i8 %73, ptr %74, align 1, !tbaa !34
  %75 = and i32 %68, 255
  %76 = icmp samesign ult i32 %75, 63
  %.v73 = select i1 %76, i32 64, i32 65
  %77 = add nuw nsw i32 %.v73, %68
  %78 = trunc i32 %77 to i8
  %79 = load ptr, ptr %6, align 8, !tbaa !37
  %80 = getelementptr i8, ptr %79, i64 1
  store i8 %78, ptr %80, align 1, !tbaa !34
  br label %81

81:                                               ; preds = %.thread79, %37
  %.sink105 = phi i64 [ 2, %.thread79 ], [ 1, %37 ]
  %.sink = phi i64 [ -2, %.thread79 ], [ -1, %37 ]
  %82 = load i64, ptr %4, align 8, !tbaa !48
  %83 = add i64 %82, 1
  store i64 %83, ptr %4, align 8, !tbaa !48
  %84 = load ptr, ptr %6, align 8, !tbaa !37
  %85 = getelementptr i8, ptr %84, i64 %.sink105
  store ptr %85, ptr %6, align 8, !tbaa !37
  %86 = add nsw i64 %.05689, %.sink
  %87 = icmp slt i64 %83, %5
  br i1 %87, label %.lr.ph, label %.thread83

.thread83:                                        ; preds = %81, %31, %.thread, %.thread99, %59, %61, %9
  %.2 = phi i64 [ 0, %9 ], [ 1, %61 ], [ 1, %59 ], [ -1, %.thread99 ], [ -1, %.thread ], [ 1, %31 ], [ 0, %81 ]
  ret i64 %.2
}